target datalayout = "e-m:e-p270:32:32-p271:32:32-p272:64:64-i64:64-i128:128-f80:128-n8:16:32:64-S128"
target triple = "x86_64-pc-linux-gnu"

@stdout = external global ptr, align 8
@.str.97 = private unnamed_addr constant [26 x i8] c"Initializing interpreter\0A\00", align 1
@.str.100 = private unnamed_addr constant [27 x i8] c"Check sys module contents\0A\00", align 1
@.str.102 = private unnamed_addr constant [24 x i8] c"Finalizing interpreter\0A\00", align 1
@.str.106 = private unnamed_addr constant [5 x i32] [i32 111, i32 110, i32 99, i32 101, i32 0], align 4
@.str.107 = private unnamed_addr constant [21 x i32] [i32 97, i32 108, i32 115, i32 111, i32 95, i32 110, i32 111, i32 116, i32 95, i32 97, i32 110, i32 95, i32 111, i32 112, i32 116, i32 105, i32 111, i32 110, i32 61, i32 50, i32 0], align 4
@.str.108 = private unnamed_addr constant [30 x i8] c"Checking PySys_AddWarnOption\0A\00", align 1
@.str.109 = private unnamed_addr constant [8 x i32] [i32 100, i32 101, i32 102, i32 97, i32 117, i32 108, i32 116, i32 0], align 4
@.str.110 = private unnamed_addr constant [33 x i8] c"Checking PySys_ResetWarnOptions\0A\00", align 1
@.str.111 = private unnamed_addr constant [42 x i8] c"Checking PySys_AddWarnOption linked list\0A\00", align 1
@.str.112 = private unnamed_addr constant [7 x i32] [i32 109, i32 111, i32 100, i32 117, i32 108, i32 101, i32 0], align 4
@.str.113 = private unnamed_addr constant [27 x i8] c"Checking PySys_AddXOption\0A\00", align 1
@.str.114 = private unnamed_addr constant [16 x i32] [i32 110, i32 111, i32 116, i32 95, i32 97, i32 110, i32 95, i32 111, i32 112, i32 116, i32 105, i32 111, i32 110, i32 61, i32 49, i32 0], align 4

; Function Attrs: nounwind uwtable
define internal i32 @test_pre_initialization_sys_options() #0 {
  %1 = alloca ptr, align 8
  %2 = alloca ptr, align 8
  %3 = alloca i64, align 8
  %4 = alloca i64, align 8
  %5 = alloca ptr, align 8
  %6 = alloca ptr, align 8
  call void @llvm.lifetime.start.p0(i64 8, ptr %1) #11
  store ptr @.str.106, ptr %1, align 8, !tbaa !36
  call void @llvm.lifetime.start.p0(i64 8, ptr %2) #11
  store ptr @.str.107, ptr %2, align 8, !tbaa !36
  call void @llvm.lifetime.start.p0(i64 8, ptr %3) #11
  %7 = load ptr, ptr %1, align 8, !tbaa !36
  %8 = call i64 @wcslen(ptr noundef %7) #12
  store i64 %8, ptr %3, align 8, !tbaa !37
  call void @llvm.lifetime.start.p0(i64 8, ptr %4) #11
  %9 = load ptr, ptr %2, align 8, !tbaa !36
  %10 = call i64 @wcslen(ptr noundef %9) #12
  store i64 %10, ptr %4, align 8, !tbaa !37
  call void @llvm.lifetime.start.p0(i64 8, ptr %5) #11
  %11 = load i64, ptr %3, align 8, !tbaa !37
  %12 = add i64 %11, 1
  %13 = call noalias ptr @calloc(i64 noundef %12, i64 noundef 4) #14
  store ptr %13, ptr %5, align 8, !tbaa !36
  call void @llvm.lifetime.start.p0(i64 8, ptr %6) #11
  %14 = load i64, ptr %4, align 8, !tbaa !37
  %15 = add i64 %14, 1
  %16 = call noalias ptr @calloc(i64 noundef %15, i64 noundef 4) #14
  store ptr %16, ptr %6, align 8, !tbaa !36
  %17 = load ptr, ptr %5, align 8, !tbaa !36
  %18 = load ptr, ptr %1, align 8, !tbaa !36
  %19 = load i64, ptr %3, align 8, !tbaa !37
  %20 = add i64 %19, 1
  %21 = call ptr @wcsncpy(ptr noundef %17, ptr noundef %18, i64 noundef %20) #11
  %22 = load ptr, ptr %6, align 8, !tbaa !36
  %23 = load ptr, ptr %2, align 8, !tbaa !36
  %24 = load i64, ptr %4, align 8, !tbaa !37
  %25 = add i64 %24, 1
  %26 = call ptr @wcsncpy(ptr noundef %22, ptr noundef %23, i64 noundef %25) #11
  br label %27

27:                                               ; preds = %0
  %28 = call i32 (ptr, ...) @printf(ptr noundef @.str.108)
  %29 = load ptr, ptr @stdout, align 8, !tbaa !21
  %30 = call i32 @fflush(ptr noundef %29)
  br label %31

31:                                               ; preds = %27
  br label %32

32:                                               ; preds = %31
  call void @PySys_AddWarnOption(ptr noundef @.str.109)
  br label %33

33:                                               ; preds = %32
  %34 = call i32 (ptr, ...) @printf(ptr noundef @.str.110)
  %35 = load ptr, ptr @stdout, align 8, !tbaa !21
  %36 = call i32 @fflush(ptr noundef %35)
  br label %37

37:                                               ; preds = %33
  br label %38

38:                                               ; preds = %37
  call void @PySys_ResetWarnOptions()
  br label %39

39:                                               ; preds = %38
  %40 = call i32 (ptr, ...) @printf(ptr noundef @.str.111)
  %41 = load ptr, ptr @stdout, align 8, !tbaa !21
  %42 = call i32 @fflush(ptr noundef %41)
  br label %43

43:                                               ; preds = %39
  br label %44

44:                                               ; preds = %43
  %45 = load ptr, ptr %5, align 8, !tbaa !36
  call void @PySys_AddWarnOption(ptr noundef %45)
  call void @PySys_AddWarnOption(ptr noundef @.str.112)
  call void @PySys_AddWarnOption(ptr noundef @.str.109)
  br label %46

46:                                               ; preds = %44
  %47 = call i32 (ptr, ...) @printf(ptr noundef @.str.113)
  %48 = load ptr, ptr @stdout, align 8, !tbaa !21
  %49 = call i32 @fflush(ptr noundef %48)
  br label %50

50:                                               ; preds = %46
  br label %51

51:                                               ; preds = %50
  call void @PySys_AddXOption(ptr noundef @.str.114)
  %52 = load ptr, ptr %6, align 8, !tbaa !36
  call void @PySys_AddXOption(ptr noundef %52)
  %53 = load ptr, ptr %5, align 8, !tbaa !36
  call void @free(ptr noundef %53) #11
  store ptr null, ptr %5, align 8, !tbaa !36
  %54 = load ptr, ptr %6, align 8, !tbaa !36
  call void @free(ptr noundef %54) #11
  store ptr null, ptr %6, align 8, !tbaa !36
  br label %55

55:                                               ; preds = %51
  %56 = call i32 (ptr, ...) @printf(ptr noundef @.str.97)
  %57 = load ptr, ptr @stdout, align 8, !tbaa !21
  %58 = call i32 @fflush(ptr noundef %57)
  br label %59

59:                                               ; preds = %55
  br label %60

60:                                               ; preds = %59
  call void @_testembed_Py_InitializeFromConfig()
  br label %61

61:                                               ; preds = %60
  %62 = call i32 (ptr, ...) @printf(ptr noundef @.str.100)
  %63 = load ptr, ptr @stdout, align 8, !tbaa !21
  %64 = call i32 @fflush(ptr noundef %63)
  br label %65

65:                                               ; preds = %61
  br label %66

66:                                               ; preds = %65
  %67 = call i32 @PyRun_SimpleStringFlags(ptr noundef @.str.115, ptr noundef null)
  br label %68

68:                                               ; preds = %66
  %69 = call i32 (ptr, ...) @printf(ptr noundef @.str.102)
  %70 = load ptr, ptr @stdout, align 8, !tbaa !21
  %71 = call i32 @fflush(ptr noundef %70)
  br label %72

72:                                               ; preds = %68
  br label %73

73:                                               ; preds = %72
  call void @Py_Finalize()
  call void @llvm.lifetime.end.p0(i64 8, ptr %6) #11
  call void @llvm.lifetime.end.p0(i64 8, ptr %5) #11
  call void @llvm.lifetime.end.p0(i64 8, ptr %4) #11
  call void @llvm.lifetime.end.p0(i64 8, ptr %3) #11
  call void @llvm.lifetime.end.p0(i64 8, ptr %2) #11
  call void @llvm.lifetime.end.p0(i64 8, ptr %1) #11
  ret i32 0
}