; Function Attrs: nounwind uwtable
define internal noundef i32 @test_pre_initialization_sys_options() #0 {
  %1 = tail call noalias dereferenceable_or_null(20) ptr @calloc(i64 noundef 5, i64 noundef 4) #25
  %2 = tail call noalias dereferenceable_or_null(84) ptr @calloc(i64 noundef 21, i64 noundef 4) #25
  %3 = tail call ptr @wcsncpy(ptr noundef %1, ptr noundef nonnull @.str.106, i64 noundef 5) #20
  %4 = tail call ptr @wcsncpy(ptr noundef %2, ptr noundef nonnull @.str.107, i64 noundef 21) #20
  %puts = tail call i32 @puts(ptr nonnull dereferenceable(1) @str.14)
  %5 = load ptr, ptr @stdout, align 8, !tbaa !16
  %6 = tail call i32 @fflush(ptr noundef %5)
  tail call void @PySys_AddWarnOption(ptr noundef nonnull @.str.109) #20
  %puts13 = tail call i32 @puts(ptr nonnull dereferenceable(1) @str.15)
  %7 = load ptr, ptr @stdout, align 8, !tbaa !16
  %8 = tail call i32 @fflush(ptr noundef %7)
  tail call void @PySys_ResetWarnOptions() #20
  %puts14 = tail call i32 @puts(ptr nonnull dereferenceable(1) @str.16)
  %9 = load ptr, ptr @stdout, align 8, !tbaa !16
  %10 = tail call i32 @fflush(ptr noundef %9)
  tail call void @PySys_AddWarnOption(ptr noundef %1) #20
  tail call void @PySys_AddWarnOption(ptr noundef nonnull @.str.112) #20
  tail call void @PySys_AddWarnOption(ptr noundef nonnull @.str.109) #20
  %puts15 = tail call i32 @puts(ptr nonnull dereferenceable(1) @str.17)
  %11 = load ptr, ptr @stdout, align 8, !tbaa !16
  %12 = tail call i32 @fflush(ptr noundef %11)
  tail call void @PySys_AddXOption(ptr noundef nonnull @.str.114) #20
  tail call void @PySys_AddXOption(ptr noundef %2) #20
  tail call void @free(ptr noundef %1) #20
  tail call void @free(ptr noundef %2) #20
  %puts16 = tail call i32 @puts(ptr nonnull dereferenceable(1) @str.18)
  %13 = load ptr, ptr @stdout, align 8, !tbaa !16
  %14 = tail call i32 @fflush(ptr noundef %13)
  tail call fastcc void @_testembed_Py_InitializeFromConfig()
  %puts17 = tail call i32 @puts(ptr nonnull dereferenceable(1) @str.19)
  %15 = load ptr, ptr @stdout, align 8, !tbaa !16
  %16 = tail call i32 @fflush(ptr noundef %15)
  %17 = tail call i32 @PyRun_SimpleStringFlags(ptr noundef nonnull @.str.115, ptr noundef null) #20
  %puts18 = tail call i32 @puts(ptr nonnull dereferenceable(1) @str.20)
  %18 = load ptr, ptr @stdout, align 8, !tbaa !16
  %19 = tail call i32 @fflush(ptr noundef %18)
  tail call void @Py_Finalize() #20
  ret i32 0
}